target datalayout = "e-m:e-p270:32:32-p271:32:32-p272:64:64-i64:64-i128:128-f80:128-n8:16:32:64-S128"
target triple = "x86_64-pc-linux-gnu"

%struct.preference = type { ptr, ptr, ptr, i32, i32, i32, %union.anon, %union.anon.0, %union.anon.1, %union.anon.2, %struct.pref_custom_cbs, ptr, ptr }
%union.anon = type { ptr }
%union.anon.0 = type { ptr }
%union.anon.1 = type { ptr }
%union.anon.2 = type { %struct.anon }
%struct.anon = type { ptr, i8 }
%struct.pref_custom_cbs = type { ptr, ptr, ptr, ptr, ptr, ptr, ptr }

; Function Attrs: null_pointer_is_valid sspstrong uwtable
define internal void @reset_string_like_preference(ptr noundef %0) #1 {
  %2 = alloca ptr, align 8
  store ptr %0, ptr %2, align 8
  %3 = load ptr, ptr %2, align 8
  %4 = getelementptr inbounds nuw %struct.preference, ptr %3, i32 0, i32 6
  %5 = load ptr, ptr %4, align 8
  %6 = load ptr, ptr %5, align 8
  call void @g_free(ptr noundef %6)
  %7 = load ptr, ptr %2, align 8
  %8 = getelementptr inbounds nuw %struct.preference, ptr %7, i32 0, i32 8
  %9 = load ptr, ptr %8, align 8
  %10 = call noalias ptr @g_strdup(ptr noundef %9)
  %11 = load ptr, ptr %2, align 8
  %12 = getelementptr inbounds nuw %struct.preference, ptr %11, i32 0, i32 6
  %13 = load ptr, ptr %12, align 8
  store ptr %10, ptr %13, align 8
  ret void
}

; Function Attrs: null_pointer_is_valid sspstrong uwtable
define void @reset_pref(ptr noundef %0) #1 {
  %2 = alloca ptr, align 8
  %3 = alloca i32, align 4
  %4 = alloca i32, align 4
  store ptr %0, ptr %2, align 8
  call void @llvm.lifetime.start.p0(i64 4, ptr %3) #17
  %5 = load ptr, ptr %2, align 8
  %6 = icmp ne ptr %5, null
  br i1 %6, label %8, label %7

7:                                                ; preds = %1
  store i32 1, ptr %4, align 4
  br label %74

8:                                                ; preds = %1
  %9 = load ptr, ptr %2, align 8
  %10 = getelementptr inbounds nuw %struct.preference, ptr %9, i32 0, i32 4
  %11 = load i32, ptr %10, align 4
  store i32 %11, ptr %3, align 4
  %12 = load i32, ptr %3, align 4
  %13 = and i32 %12, 1024
  %14 = icmp ne i32 %13, 0
  br i1 %14, label %15, label %16

15:                                               ; preds = %8
  store i32 1, ptr %4, align 4
  br label %74

16:                                               ; preds = %8
  %17 = load i32, ptr %3, align 4
  %18 = and i32 %17, -1025
  store i32 %18, ptr %3, align 4
  br label %19

19:                                               ; preds = %16
  %20 = load i32, ptr %3, align 4
  switch i32 %20, label %73 [
    i32 1, label %21
    i32 2, label %28
    i32 4, label %37
    i32 65536, label %37
    i32 8, label %44
    i32 128, label %44
    i32 16384, label %44
    i32 2048, label %44
    i32 32768, label %44
    i32 131072, label %44
    i32 16, label %46
    i32 8192, label %46
    i32 32, label %60
    i32 64, label %60
    i32 256, label %61
    i32 512, label %67
  ]

21:                                               ; preds = %19
  %22 = load ptr, ptr %2, align 8
  %23 = getelementptr inbounds nuw %struct.preference, ptr %22, i32 0, i32 8
  %24 = load i32, ptr %23, align 8
  %25 = load ptr, ptr %2, align 8
  %26 = getelementptr inbounds nuw %struct.preference, ptr %25, i32 0, i32 6
  %27 = load ptr, ptr %26, align 8
  store i32 %24, ptr %27, align 4
  br label %73

28:                                               ; preds = %19
  %29 = load ptr, ptr %2, align 8
  %30 = getelementptr inbounds nuw %struct.preference, ptr %29, i32 0, i32 8
  %31 = load i8, ptr %30, align 8, !range !6, !noundef !7
  %32 = trunc i8 %31 to i1
  %33 = load ptr, ptr %2, align 8
  %34 = getelementptr inbounds nuw %struct.preference, ptr %33, i32 0, i32 6
  %35 = load ptr, ptr %34, align 8
  %36 = zext i1 %32 to i8
  store i8 %36, ptr %35, align 1
  br label %73

37:                                               ; preds = %19, %19
  %38 = load ptr, ptr %2, align 8
  %39 = getelementptr inbounds nuw %struct.preference, ptr %38, i32 0, i32 8
  %40 = load i32, ptr %39, align 8
  %41 = load ptr, ptr %2, align 8
  %42 = getelementptr inbounds nuw %struct.preference, ptr %41, i32 0, i32 6
  %43 = load ptr, ptr %42, align 8
  store i32 %40, ptr %43, align 4
  br label %73

44:                                               ; preds = %19, %19, %19, %19, %19, %19
  %45 = load ptr, ptr %2, align 8
  call void @reset_string_like_preference(ptr noundef %45)
  br label %73

46:                                               ; preds = %19, %19
  %47 = call ptr @wmem_epan_scope()
  %48 = load ptr, ptr %2, align 8
  %49 = getelementptr inbounds nuw %struct.preference, ptr %48, i32 0, i32 6
  %50 = load ptr, ptr %49, align 8
  %51 = load ptr, ptr %50, align 8
  call void @wmem_free(ptr noundef %47, ptr noundef %51)
  %52 = call ptr @wmem_epan_scope()
  %53 = load ptr, ptr %2, align 8
  %54 = getelementptr inbounds nuw %struct.preference, ptr %53, i32 0, i32 8
  %55 = load ptr, ptr %54, align 8
  %56 = call ptr @range_copy(ptr noundef %52, ptr noundef %55)
  %57 = load ptr, ptr %2, align 8
  %58 = getelementptr inbounds nuw %struct.preference, ptr %57, i32 0, i32 6
  %59 = load ptr, ptr %58, align 8
  store ptr %56, ptr %59, align 8
  br label %73

60:                                               ; preds = %19, %19
  br label %73

61:                                               ; preds = %19
  %62 = load ptr, ptr %2, align 8
  %63 = getelementptr inbounds nuw %struct.preference, ptr %62, i32 0, i32 6
  %64 = load ptr, ptr %63, align 8
  %65 = load ptr, ptr %2, align 8
  %66 = getelementptr inbounds nuw %struct.preference, ptr %65, i32 0, i32 8
  call void @llvm.memcpy.p0.p0.i64(ptr align 2 %64, ptr align 8 %66, i64 6, i1 false)
  br label %73

67:                                               ; preds = %19
  %68 = load ptr, ptr %2, align 8
  %69 = getelementptr inbounds nuw %struct.preference, ptr %68, i32 0, i32 10
  %70 = getelementptr inbounds nuw %struct.pref_custom_cbs, ptr %69, i32 0, i32 1
  %71 = load ptr, ptr %70, align 8
  %72 = load ptr, ptr %2, align 8
  call void %71(ptr noundef %72)
  br label %73

73:                                               ; preds = %19, %67, %61, %60, %46, %44, %37, %28, %21
  store i32 0, ptr %4, align 4
  br label %74

74:                                               ; preds = %73, %15, %7
  call void @llvm.lifetime.end.p0(i64 4, ptr %3) #17
  %75 = load i32, ptr %4, align 4
  switch i32 %75, label %77 [
    i32 0, label %76
    i32 1, label %76
  ]

76:                                               ; preds = %74, %74
  ret void

77:                                               ; preds = %74
  unreachable
}