; Function Attrs: null_pointer_is_valid sspstrong uwtable
define void @reset_pref(ptr noundef %0) local_unnamed_addr #1 {
  %.not = icmp eq ptr %0, null
  br i1 %.not, label %47, label %2

2:                                                ; preds = %1
  %3 = getelementptr inbounds nuw i8, ptr %0, i64 28
  %4 = load i32, ptr %3, align 4
  %5 = and i32 %4, 1024
  %.not18 = icmp eq i32 %5, 0
  br i1 %.not18, label %6, label %47

6:                                                ; preds = %2
  switch i32 %4, label %47 [
    i32 1, label %7
    i32 2, label %12
    i32 4, label %17
    i32 65536, label %17
    i32 8, label %22
    i32 128, label %22
    i32 16384, label %22
    i32 2048, label %22
    i32 32768, label %22
    i32 131072, label %22
    i32 16, label %30
    i32 8192, label %30
    i32 512, label %44
    i32 256, label %40
  ]

7:                                                ; preds = %6
  %8 = getelementptr inbounds nuw i8, ptr %0, i64 56
  %9 = load i32, ptr %8, align 8
  %10 = getelementptr inbounds nuw i8, ptr %0, i64 40
  %11 = load ptr, ptr %10, align 8
  store i32 %9, ptr %11, align 4
  br label %47

12:                                               ; preds = %6
  %13 = getelementptr inbounds nuw i8, ptr %0, i64 56
  %14 = load i8, ptr %13, align 8, !range !6, !noundef !7
  %15 = getelementptr inbounds nuw i8, ptr %0, i64 40
  %16 = load ptr, ptr %15, align 8
  store i8 %14, ptr %16, align 1
  br label %47

17:                                               ; preds = %6, %6
  %18 = getelementptr inbounds nuw i8, ptr %0, i64 56
  %19 = load i32, ptr %18, align 8
  %20 = getelementptr inbounds nuw i8, ptr %0, i64 40
  %21 = load ptr, ptr %20, align 8
  store i32 %19, ptr %21, align 4
  br label %47

22:                                               ; preds = %6, %6, %6, %6, %6, %6
  %23 = getelementptr inbounds nuw i8, ptr %0, i64 40
  %24 = load ptr, ptr %23, align 8
  %25 = load ptr, ptr %24, align 8
  tail call void @g_free(ptr noundef %25)
  %26 = getelementptr inbounds nuw i8, ptr %0, i64 56
  %27 = load ptr, ptr %26, align 8
  %28 = tail call noalias ptr @g_strdup(ptr noundef %27)
  %29 = load ptr, ptr %23, align 8
  store ptr %28, ptr %29, align 8
  br label %47

30:                                               ; preds = %6, %6
  %31 = tail call ptr @wmem_epan_scope()
  %32 = getelementptr inbounds nuw i8, ptr %0, i64 40
  %33 = load ptr, ptr %32, align 8
  %34 = load ptr, ptr %33, align 8
  tail call void @wmem_free(ptr noundef %31, ptr noundef %34)
  %35 = tail call ptr @wmem_epan_scope()
  %36 = getelementptr inbounds nuw i8, ptr %0, i64 56
  %37 = load ptr, ptr %36, align 8
  %38 = tail call ptr @range_copy(ptr noundef %35, ptr noundef %37)
  %39 = load ptr, ptr %32, align 8
  store ptr %38, ptr %39, align 8
  br label %47

40:                                               ; preds = %6
  %41 = getelementptr inbounds nuw i8, ptr %0, i64 40
  %42 = load ptr, ptr %41, align 8
  %43 = getelementptr inbounds nuw i8, ptr %0, i64 56
  tail call void @llvm.memcpy.p0.p0.i64(ptr noundef align 2 dereferenceable(6) %42, ptr noundef nonnull align 8 dereferenceable(6) %43, i64 6, i1 false)
  br label %47

44:                                               ; preds = %6
  %45 = getelementptr inbounds nuw i8, ptr %0, i64 88
  %46 = load ptr, ptr %45, align 8
  tail call void %46(ptr noundef nonnull %0)
  br label %47

47:                                               ; preds = %6, %7, %12, %17, %22, %30, %40, %44, %2, %1
  ret void
}